target datalayout = "e-m:e-p270:32:32-p271:32:32-p272:64:64-i64:64-i128:128-f80:128-n8:16:32:64-S128"
target triple = "x86_64-pc-linux-gnu"

%struct.numeric = type { i32, i32, i32, i32, i32, ptr, ptr }

; Function Attrs: nounwind uwtable
define i32 @risnull(i32 noundef %0, ptr noundef %1) #0 {
  %3 = alloca i32, align 4
  %4 = alloca ptr, align 8
  store i32 %0, ptr %3, align 4
  store ptr %1, ptr %4, align 8
  %5 = load i32, ptr %3, align 4
  %6 = load ptr, ptr %4, align 8
  %7 = call zeroext i1 @ECPGis_noind_null(i32 noundef %5, ptr noundef %6)
  %8 = zext i1 %7 to i32
  ret i32 %8
}

; Function Attrs: nounwind uwtable
define i32 @rsetnull(i32 noundef %0, ptr noundef %1) #0 {
  %3 = alloca i32, align 4
  %4 = alloca ptr, align 8
  store i32 %0, ptr %3, align 4
  store ptr %1, ptr %4, align 8
  %5 = load i32, ptr %3, align 4
  %6 = load ptr, ptr %4, align 8
  call void @ECPGset_noind_null(i32 noundef %5, ptr noundef %6)
  ret i32 0
}

; Function Attrs: nounwind uwtable
define i32 @dectoasc(ptr noundef %0, ptr noundef %1, i32 noundef %2, i32 noundef %3) #0 {
  %5 = alloca i32, align 4
  %6 = alloca ptr, align 8
  %7 = alloca ptr, align 8
  %8 = alloca i32, align 4
  %9 = alloca i32, align 4
  %10 = alloca ptr, align 8
  %11 = alloca ptr, align 8
  %12 = alloca i32, align 4
  store ptr %0, ptr %6, align 8
  store ptr %1, ptr %7, align 8
  store i32 %2, ptr %8, align 4
  store i32 %3, ptr %9, align 4
  call void @llvm.lifetime.start.p0(i64 8, ptr %10) #9
  call void @llvm.lifetime.start.p0(i64 8, ptr %11) #9
  %13 = load ptr, ptr %7, align 8
  %14 = call i32 @rsetnull(i32 noundef 1, ptr noundef %13)
  %15 = load ptr, ptr %6, align 8
  %16 = call i32 @risnull(i32 noundef 17, ptr noundef %15)
  %17 = icmp ne i32 %16, 0
  br i1 %17, label %18, label %19

18:                                               ; preds = %4
  store i32 0, ptr %5, align 4
  store i32 1, ptr %12, align 4
  br label %71

19:                                               ; preds = %4
  %20 = call ptr @PGTYPESnumeric_new()
  store ptr %20, ptr %11, align 8
  %21 = load ptr, ptr %11, align 8
  %22 = icmp eq ptr %21, null
  br i1 %22, label %23, label %24

23:                                               ; preds = %19
  store i32 -1211, ptr %5, align 4
  store i32 1, ptr %12, align 4
  br label %71

24:                                               ; preds = %19
  %25 = load ptr, ptr %6, align 8
  %26 = load ptr, ptr %11, align 8
  %27 = call i32 @PGTYPESnumeric_from_decimal(ptr noundef %25, ptr noundef %26)
  %28 = icmp ne i32 %27, 0
  br i1 %28, label %29, label %31

29:                                               ; preds = %24
  %30 = load ptr, ptr %11, align 8
  call void @PGTYPESnumeric_free(ptr noundef %30)
  store i32 -1211, ptr %5, align 4
  store i32 1, ptr %12, align 4
  br label %71

31:                                               ; preds = %24
  %32 = load i32, ptr %9, align 4
  %33 = icmp sge i32 %32, 0
  br i1 %33, label %34, label %38

34:                                               ; preds = %31
  %35 = load ptr, ptr %11, align 8
  %36 = load i32, ptr %9, align 4
  %37 = call ptr @PGTYPESnumeric_to_asc(ptr noundef %35, i32 noundef %36)
  store ptr %37, ptr %10, align 8
  br label %44

38:                                               ; preds = %31
  %39 = load ptr, ptr %11, align 8
  %40 = load ptr, ptr %11, align 8
  %41 = getelementptr inbounds nuw %struct.numeric, ptr %40, i32 0, i32 3
  %42 = load i32, ptr %41, align 4
  %43 = call ptr @PGTYPESnumeric_to_asc(ptr noundef %39, i32 noundef %42)
  store ptr %43, ptr %10, align 8
  br label %44

44:                                               ; preds = %38, %34
  %45 = load ptr, ptr %11, align 8
  call void @PGTYPESnumeric_free(ptr noundef %45)
  %46 = load ptr, ptr %10, align 8
  %47 = icmp ne ptr %46, null
  br i1 %47, label %49, label %48

48:                                               ; preds = %44
  store i32 -1, ptr %5, align 4
  store i32 1, ptr %12, align 4
  br label %71

49:                                               ; preds = %44
  %50 = load ptr, ptr %10, align 8
  %51 = call i64 @strlen(ptr noundef %50) #10
  %52 = add i64 %51, 1
  %53 = trunc i64 %52 to i32
  %54 = load i32, ptr %8, align 4
  %55 = icmp sgt i32 %53, %54
  br i1 %55, label %56, label %66

56:                                               ; preds = %49
  %57 = load i32, ptr %8, align 4
  %58 = icmp sgt i32 %57, 1
  br i1 %58, label %59, label %64

59:                                               ; preds = %56
  %60 = load ptr, ptr %7, align 8
  %61 = getelementptr inbounds i8, ptr %60, i64 0
  store i8 42, ptr %61, align 1
  %62 = load ptr, ptr %7, align 8
  %63 = getelementptr inbounds i8, ptr %62, i64 1
  store i8 0, ptr %63, align 1
  br label %64

64:                                               ; preds = %59, %56
  %65 = load ptr, ptr %10, align 8
  call void @free(ptr noundef %65) #9
  store i32 -1, ptr %5, align 4
  store i32 1, ptr %12, align 4
  br label %71

66:                                               ; preds = %49
  %67 = load ptr, ptr %7, align 8
  %68 = load ptr, ptr %10, align 8
  %69 = call ptr @strcpy(ptr noundef %67, ptr noundef %68) #9
  %70 = load ptr, ptr %10, align 8
  call void @free(ptr noundef %70) #9
  store i32 0, ptr %5, align 4
  store i32 1, ptr %12, align 4
  br label %71

71:                                               ; preds = %66, %64, %48, %29, %23, %18
  call void @llvm.lifetime.end.p0(i64 8, ptr %11) #9
  call void @llvm.lifetime.end.p0(i64 8, ptr %10) #9
  %72 = load i32, ptr %5, align 4
  ret i32 %72
}