; Function Attrs: nounwind uwtable
define range(i32 -1211, 1) i32 @dectoasc(ptr noundef %0, ptr noundef %1, i32 noundef %2, i32 noundef %3) local_unnamed_addr #0 {
  tail call void @ECPGset_noind_null(i32 noundef 1, ptr noundef %1) #16
  %5 = tail call zeroext i1 @ECPGis_noind_null(i32 noundef 17, ptr noundef %0) #16
  br i1 %5, label %31, label %6

6:                                                ; preds = %4
  %7 = tail call ptr @PGTYPESnumeric_new() #16
  %8 = icmp eq ptr %7, null
  br i1 %8, label %31, label %9

9:                                                ; preds = %6
  %10 = tail call i32 @PGTYPESnumeric_from_decimal(ptr noundef %0, ptr noundef nonnull %7) #16
  %.not26 = icmp eq i32 %10, 0
  br i1 %.not26, label %12, label %11

11:                                               ; preds = %9
  tail call void @PGTYPESnumeric_free(ptr noundef nonnull %7) #16
  br label %31

12:                                               ; preds = %9
  %13 = icmp sgt i32 %3, -1
  br i1 %13, label %17, label %14

14:                                               ; preds = %12
  %15 = getelementptr inbounds nuw i8, ptr %7, i64 12
  %16 = load i32, ptr %15, align 4
  br label %17

17:                                               ; preds = %12, %14
  %.sink = phi i32 [ %16, %14 ], [ %3, %12 ]
  %18 = tail call ptr @PGTYPESnumeric_to_asc(ptr noundef nonnull %7, i32 noundef %.sink) #16
  tail call void @PGTYPESnumeric_free(ptr noundef nonnull %7) #16
  %.not27 = icmp eq ptr %18, null
  br i1 %.not27, label %31, label %19

19:                                               ; preds = %17
  %20 = tail call i64 @strlen(ptr noundef nonnull dereferenceable(1) %18) #17
  %21 = trunc i64 %20 to i32
  %22 = add i32 %21, 1
  %23 = icmp sgt i32 %22, %2
  br i1 %23, label %24, label %29

24:                                               ; preds = %19
  %25 = icmp sgt i32 %2, 1
  br i1 %25, label %26, label %28

26:                                               ; preds = %24
  store i8 42, ptr %1, align 1
  %27 = getelementptr inbounds nuw i8, ptr %1, i64 1
  store i8 0, ptr %27, align 1
  br label %28

28:                                               ; preds = %26, %24
  tail call void @free(ptr noundef nonnull %18) #16
  br label %31

29:                                               ; preds = %19
  %30 = tail call ptr @strcpy(ptr noundef nonnull dereferenceable(1) %1, ptr noundef nonnull dereferenceable(1) %18) #16
  tail call void @free(ptr noundef nonnull %18) #16
  br label %31

31:                                               ; preds = %17, %6, %4, %29, %28, %11
  %.0 = phi i32 [ -1211, %11 ], [ -1, %28 ], [ 0, %29 ], [ 0, %4 ], [ -1211, %6 ], [ -1, %17 ]
  ret i32 %.0
}